###############################################################################
#
# IAR ELF Linker V7.50.2.10312/W32 for ARM                05/Dec/2016  10:02:14
# Copyright 2007-2015 IAR Systems AB.
#
#    Output file  =  
#        F:\phoenix\PRO\IAR+FreeRTOS+STM32L1xx\Project\EWARMv6\Debug\Exe\c.out
#    Map file     =  
#        F:\phoenix\PRO\IAR+FreeRTOS+STM32L1xx\Project\EWARMv6\Debug\List\c.map
#    Command line =  
#        F:\phoenix\PRO\IAR+FreeRTOS+STM32L1xx\Project\EWARMv6\Debug\Obj\adc.o
#        F:\phoenix\PRO\IAR+FreeRTOS+STM32L1xx\Project\EWARMv6\Debug\Obj\adxl345.o
#        F:\phoenix\PRO\IAR+FreeRTOS+STM32L1xx\Project\EWARMv6\Debug\Obj\beep.o
#        F:\phoenix\PRO\IAR+FreeRTOS+STM32L1xx\Project\EWARMv6\Debug\Obj\bsp.o
#        F:\phoenix\PRO\IAR+FreeRTOS+STM32L1xx\Project\EWARMv6\Debug\Obj\croutine.o
#        F:\phoenix\PRO\IAR+FreeRTOS+STM32L1xx\Project\EWARMv6\Debug\Obj\delay.o
#        F:\phoenix\PRO\IAR+FreeRTOS+STM32L1xx\Project\EWARMv6\Debug\Obj\dismantle.o
#        F:\phoenix\PRO\IAR+FreeRTOS+STM32L1xx\Project\EWARMv6\Debug\Obj\eeprom.o
#        F:\phoenix\PRO\IAR+FreeRTOS+STM32L1xx\Project\EWARMv6\Debug\Obj\event_groups.o
#        F:\phoenix\PRO\IAR+FreeRTOS+STM32L1xx\Project\EWARMv6\Debug\Obj\hal_acc_sensor.o
#        F:\phoenix\PRO\IAR+FreeRTOS+STM32L1xx\Project\EWARMv6\Debug\Obj\hal_beep.o
#        F:\phoenix\PRO\IAR+FreeRTOS+STM32L1xx\Project\EWARMv6\Debug\Obj\hal_brightness.o
#        F:\phoenix\PRO\IAR+FreeRTOS+STM32L1xx\Project\EWARMv6\Debug\Obj\hal_dismantle.o
#        F:\phoenix\PRO\IAR+FreeRTOS+STM32L1xx\Project\EWARMv6\Debug\Obj\hal_eeprom.o
#        F:\phoenix\PRO\IAR+FreeRTOS+STM32L1xx\Project\EWARMv6\Debug\Obj\hal_energy.o
#        F:\phoenix\PRO\IAR+FreeRTOS+STM32L1xx\Project\EWARMv6\Debug\Obj\hal_led.o
#        F:\phoenix\PRO\IAR+FreeRTOS+STM32L1xx\Project\EWARMv6\Debug\Obj\hal_nfc.o
#        F:\phoenix\PRO\IAR+FreeRTOS+STM32L1xx\Project\EWARMv6\Debug\Obj\hal_platform.o
#        F:\phoenix\PRO\IAR+FreeRTOS+STM32L1xx\Project\EWARMv6\Debug\Obj\hal_tempRh.o
#        F:\phoenix\PRO\IAR+FreeRTOS+STM32L1xx\Project\EWARMv6\Debug\Obj\heap_4.o
#        F:\phoenix\PRO\IAR+FreeRTOS+STM32L1xx\Project\EWARMv6\Debug\Obj\I2c.o
#        F:\phoenix\PRO\IAR+FreeRTOS+STM32L1xx\Project\EWARMv6\Debug\Obj\list.o
#        F:\phoenix\PRO\IAR+FreeRTOS+STM32L1xx\Project\EWARMv6\Debug\Obj\main.o
#        F:\phoenix\PRO\IAR+FreeRTOS+STM32L1xx\Project\EWARMv6\Debug\Obj\misc.o
#        F:\phoenix\PRO\IAR+FreeRTOS+STM32L1xx\Project\EWARMv6\Debug\Obj\nfc_module.o
#        F:\phoenix\PRO\IAR+FreeRTOS+STM32L1xx\Project\EWARMv6\Debug\Obj\nt3h1101.o
#        F:\phoenix\PRO\IAR+FreeRTOS+STM32L1xx\Project\EWARMv6\Debug\Obj\opt3001.o
#        F:\phoenix\PRO\IAR+FreeRTOS+STM32L1xx\Project\EWARMv6\Debug\Obj\platform.o
#        F:\phoenix\PRO\IAR+FreeRTOS+STM32L1xx\Project\EWARMv6\Debug\Obj\port.o
#        F:\phoenix\PRO\IAR+FreeRTOS+STM32L1xx\Project\EWARMv6\Debug\Obj\portasm.o
#        F:\phoenix\PRO\IAR+FreeRTOS+STM32L1xx\Project\EWARMv6\Debug\Obj\queue.o
#        F:\phoenix\PRO\IAR+FreeRTOS+STM32L1xx\Project\EWARMv6\Debug\Obj\SHT20.o
#        F:\phoenix\PRO\IAR+FreeRTOS+STM32L1xx\Project\EWARMv6\Debug\Obj\startup_stm32l1xx_mdp.o
#        F:\phoenix\PRO\IAR+FreeRTOS+STM32L1xx\Project\EWARMv6\Debug\Obj\stm32l1xx_adc.o
#        F:\phoenix\PRO\IAR+FreeRTOS+STM32L1xx\Project\EWARMv6\Debug\Obj\stm32l1xx_aes.o
#        F:\phoenix\PRO\IAR+FreeRTOS+STM32L1xx\Project\EWARMv6\Debug\Obj\stm32l1xx_aes_util.o
#        F:\phoenix\PRO\IAR+FreeRTOS+STM32L1xx\Project\EWARMv6\Debug\Obj\stm32l1xx_comp.o
#        F:\phoenix\PRO\IAR+FreeRTOS+STM32L1xx\Project\EWARMv6\Debug\Obj\stm32l1xx_crc.o
#        F:\phoenix\PRO\IAR+FreeRTOS+STM32L1xx\Project\EWARMv6\Debug\Obj\stm32l1xx_dac.o
#        F:\phoenix\PRO\IAR+FreeRTOS+STM32L1xx\Project\EWARMv6\Debug\Obj\stm32l1xx_dbgmcu.o
#        F:\phoenix\PRO\IAR+FreeRTOS+STM32L1xx\Project\EWARMv6\Debug\Obj\stm32l1xx_dma.o
#        F:\phoenix\PRO\IAR+FreeRTOS+STM32L1xx\Project\EWARMv6\Debug\Obj\stm32l1xx_exti.o
#        F:\phoenix\PRO\IAR+FreeRTOS+STM32L1xx\Project\EWARMv6\Debug\Obj\stm32l1xx_flash.o
#        F:\phoenix\PRO\IAR+FreeRTOS+STM32L1xx\Project\EWARMv6\Debug\Obj\stm32l1xx_flash_ramfunc.o
#        F:\phoenix\PRO\IAR+FreeRTOS+STM32L1xx\Project\EWARMv6\Debug\Obj\stm32l1xx_fsmc.o
#        F:\phoenix\PRO\IAR+FreeRTOS+STM32L1xx\Project\EWARMv6\Debug\Obj\stm32l1xx_gpio.o
#        F:\phoenix\PRO\IAR+FreeRTOS+STM32L1xx\Project\EWARMv6\Debug\Obj\stm32l1xx_i2c.o
#        F:\phoenix\PRO\IAR+FreeRTOS+STM32L1xx\Project\EWARMv6\Debug\Obj\stm32l1xx_it.o
#        F:\phoenix\PRO\IAR+FreeRTOS+STM32L1xx\Project\EWARMv6\Debug\Obj\stm32l1xx_iwdg.o
#        F:\phoenix\PRO\IAR+FreeRTOS+STM32L1xx\Project\EWARMv6\Debug\Obj\stm32l1xx_lcd.o
#        F:\phoenix\PRO\IAR+FreeRTOS+STM32L1xx\Project\EWARMv6\Debug\Obj\stm32l1xx_opamp.o
#        F:\phoenix\PRO\IAR+FreeRTOS+STM32L1xx\Project\EWARMv6\Debug\Obj\stm32l1xx_pwr.o
#        F:\phoenix\PRO\IAR+FreeRTOS+STM32L1xx\Project\EWARMv6\Debug\Obj\stm32l1xx_rcc.o
#        F:\phoenix\PRO\IAR+FreeRTOS+STM32L1xx\Project\EWARMv6\Debug\Obj\stm32l1xx_rtc.o
#        F:\phoenix\PRO\IAR+FreeRTOS+STM32L1xx\Project\EWARMv6\Debug\Obj\stm32l1xx_sdio.o
#        F:\phoenix\PRO\IAR+FreeRTOS+STM32L1xx\Project\EWARMv6\Debug\Obj\stm32l1xx_spi.o
#        F:\phoenix\PRO\IAR+FreeRTOS+STM32L1xx\Project\EWARMv6\Debug\Obj\stm32l1xx_syscfg.o
#        F:\phoenix\PRO\IAR+FreeRTOS+STM32L1xx\Project\EWARMv6\Debug\Obj\stm32l1xx_tim.o
#        F:\phoenix\PRO\IAR+FreeRTOS+STM32L1xx\Project\EWARMv6\Debug\Obj\stm32l1xx_usart.o
#        F:\phoenix\PRO\IAR+FreeRTOS+STM32L1xx\Project\EWARMv6\Debug\Obj\stm32l1xx_wwdg.o
#        F:\phoenix\PRO\IAR+FreeRTOS+STM32L1xx\Project\EWARMv6\Debug\Obj\system_stm32l1xx.o
#        F:\phoenix\PRO\IAR+FreeRTOS+STM32L1xx\Project\EWARMv6\Debug\Obj\tasks.o
#        F:\phoenix\PRO\IAR+FreeRTOS+STM32L1xx\Project\EWARMv6\Debug\Obj\timers.o
#        F:\phoenix\PRO\IAR+FreeRTOS+STM32L1xx\Project\EWARMv6\Debug\Obj\usart.o
#        F:\phoenix\PRO\IAR+FreeRTOS+STM32L1xx\Project\EWARMv6\Debug\Obj\WS2812.o
#        -o
#        F:\phoenix\PRO\IAR+FreeRTOS+STM32L1xx\Project\EWARMv6\Debug\Exe\c.out
#        --map
#        F:\phoenix\PRO\IAR+FreeRTOS+STM32L1xx\Project\EWARMv6\Debug\List\c.map
#        --config
#        F:\phoenix\PRO\IAR+FreeRTOS+STM32L1xx\Project\EWARMv6\SU_driver_IAR.icf
#        --semihosting --entry __iar_program_start --vfe
#
###############################################################################

*******************************************************************************
*** RUNTIME MODEL ATTRIBUTES
***

CppFlavor                     = *
__SystemLibrary               = DLib
__dlib_dynamic_initialization = normal


*******************************************************************************
*** PLACEMENT SUMMARY
***

"A1":  place at 0x08000000 { ro section .intvec };
"P1":  place in [from 0x08000000 to 0x0803ffff] { ro };
"P2":  place in [from 0x20000000 to 0x20007fff] { rw, block CSTACK, block HEAP };

  Section             Kind        Address    Size  Object
  -------             ----        -------    ----  ------
"A1":                                       0x124
  .intvec             ro code  0x08000000   0x124  startup_stm32l1xx_mdp.o [1]
                             - 0x08000124   0x124

"P1":                                      0x96b6
  .text               ro code  0x08000124   0xd8e  xprintffull_nomb.o [3]
  .text               ro code  0x08000eb2    0x76  lz77_init_single.o [5]
  .text               ro code  0x08000f28    0x16  strchr.o [5]
  .text               ro code  0x08000f40    0x36  strlen.o [5]
  .text               ro code  0x08000f78    0x58  memchr.o [5]
  .text               ro code  0x08000fd0    0xee  I64DivMod.o [5]
  .text               ro code  0x080010c0    0x76  ABImemcpy_unaligned.o [5]
  .text               ro code  0x08001136    0x42  xdnorm.o [4]
  .text               ro code  0x08001178    0x2e  DblCmpLe.o [4]
  .text               ro code  0x080011a8    0x2e  DblCmpGe.o [4]
  .text               ro code  0x080011d8   0x10c  xdscale.o [4]
  .text               ro code  0x080012e4    0x58  DblToI32.o [4]
  .text               ro code  0x0800133c    0x30  I32ToDbl.o [4]
  .text               ro code  0x0800136c   0x180  DblSub.o [4]
  .text               ro code  0x080014ec   0x1a2  DblMul.o [4]
  .text               ro code  0x08001690   0x256  DblDiv.o [4]
  .text               ro code  0x080018e8    0x6c  localeconv.o [3]
  .text               ro code  0x08001954     0xe  div.o [3]
  .text               ro code  0x08001964     0x2  I64DivZer.o [5]
  .text               ro code  0x08001968    0xe8  DblAdd.o [4]
  .text               ro code  0x08001a50     0x2  xtls.o [3]
  .text               ro code  0x08001a54   0x894  tasks.o [1]
  CODE                ro code  0x080022e8    0x94  portasm.o [1]
  .text               ro code  0x0800237c   0x1bc  port.o [1]
  .text               ro code  0x08002538    0x9e  list.o [1]
  .text               ro code  0x080025d8   0x24c  heap_4.o [1]
  .text               ro code  0x08002824   0x888  opt3001.o [1]
  .text               ro code  0x080030ac   0x248  stm32l1xx_i2c.o [1]
  .text               ro code  0x080032f4   0x160  I2c.o [1]
  .text               ro code  0x08003454   0x228  stm32l1xx_rcc.o [1]
  .text               ro code  0x0800367c   0x102  stm32l1xx_gpio.o [1]
  .text               ro code  0x08003780    0x64  stm32l1xx_syscfg.o [1]
  .text               ro code  0x080037e4    0xbc  stm32l1xx_exti.o [1]
  .text               ro code  0x080038a0    0x88  misc.o [1]
  .text               ro code  0x08003928    0xd8  FltMul.o [4]
  .text               ro code  0x08003a00    0x24  FltToU32.o [4]
  .text               ro code  0x08003a28   0x850  pow.o [4]
  .text               ro code  0x08004278    0x90  DblToFlt.o [4]
  .text               ro code  0x08004308    0x7a  xdint.o [4]
  .text               ro code  0x08004384    0x20  DblCmpEq.o [4]
  .text               ro code  0x080043a4     0xc  errno.o [3]
  .text               ro code  0x080043b0    0xac  xlog.o [4]
  .text               ro code  0x0800445c   0x2bc  xexp.o [4]
  .text               ro code  0x08004718    0x32  xdtest.o [4]
  .text               ro code  0x0800474c   0x7ec  adxl345.o [1]
  .text               ro code  0x08004f38    0x32  I32ToFlt.o [4]
  .text               ro code  0x08004f6c    0xfc  FltDiv.o [4]
  .text               ro code  0x08005068   0x72c  main.o [1]
  .text               ro code  0x08005794    0x40  bsp.o [1]
  .text               ro code  0x080057d4   0x418  queue.o [1]
  .text               ro code  0x08005bec    0x24  printf.o [3]
  .text               ro code  0x08005c10    0x24  scanf.o [3]
  .text               ro code  0x08005c34    0x16  hal_beep.o [1]
  .text               ro code  0x08005c4a    0x50  hal_platform.o [1]
  .text               ro code  0x08005c9a    0x54  hal_brightness.o [1]
  .text               ro code  0x08005cf0    0x4e  FltToDbl.o [4]
  .text               ro code  0x08005d3e    0x1a  hal_tempRh.o [1]
  .text               ro code  0x08005d58    0x20  hal_acc_sensor.o [1]
  .text               ro code  0x08005d78    0xe0  hal_nfc.o [1]
  .text               ro code  0x08005e58    0x20  hal_led.o [1]
  .text               ro code  0x08005e78   0x2f0  nfc_module.o [1]
  .text               ro code  0x08006168     0xc  hal_energy.o [1]
  .text               ro code  0x08006174    0x66  ABImemset.o [5]
  .text               ro code  0x080061da    0x36  hal_eeprom.o [1]
  .text               ro code  0x08006210   0x5d0  usart.o [1]
  .text               ro code  0x080067e0   0x2fc  WS2812.o [1]
  .text               ro code  0x08006adc     0x8  hal_dismantle.o [1]
  .text               ro code  0x08006ae4   0x4f8  xscanfsmall_nomb.o [3]
  .text               ro code  0x08006fdc    0x54  beep.o [1]
  .text               ro code  0x08007030   0x158  platform.o [1]
  .text               ro code  0x08007188   0x66a  SHT20.o [1]
  .text               ro code  0x080077f4   0x6c0  nt3h1101.o [1]
  .text               ro code  0x08007eb4    0xd4  adc.o [1]
  .text               ro code  0x08007f88    0x7c  eeprom.o [1]
  .text               ro code  0x08008004   0x1e4  stm32l1xx_dma.o [1]
  .text               ro code  0x080081e8   0x20c  stm32l1xx_usart.o [1]
  .text               ro code  0x080083f4    0xd8  stm32l1xx_tim.o [1]
  .text               ro code  0x080084cc    0x7c  dismantle.o [1]
  .text               ro code  0x08008548    0x14  isxxx.o [3]
  .text               ro code  0x0800855c    0x88  xstol.o [3]
  .text               ro code  0x080085e4   0x198  xstoul.o [3]
  .text               ro code  0x0800877c    0x84  FltAdd.o [4]
  .text               ro code  0x08008800   0x280  stm32l1xx_adc.o [1]
  .text               ro code  0x08008a80    0x44  FltToS32.o [4]
  .text               ro code  0x08008ac4   0x110  stm32l1xx_flash.o [1]
  .text               ro code  0x08008bd4    0x18  setlocale.o [3]
  .text               ro code  0x08008bec    0x14  xlocale_c.o [3]
  .text               ro code  0x08008c00    0x14  tolower.o [3]
  .text               ro code  0x08008c14    0xd6  FltSub.o [4]
  .text               ro code  0x08008cea     0xc  xlocale_c.o [3]
  .text               ro code  0x08008cf8   0x130  system_stm32l1xx.o [1]
  .rodata             const    0x08008e28    0x7c  main.o [1]
  .rodata             const    0x08008ea4    0x60  main.o [1]
  .text               ro code  0x08008f04    0x5a  stm32l1xx_it.o [1]
  .text               ro code  0x08008f5e    0x30  delay.o [1]
  .text               ro code  0x08008f8e    0x52  ungetc.o [3]
  .text               ro code  0x08008fe0     0x4  xsyslock_nop.o [3]
  .text               ro code  0x08008fe4    0x40  zero_init3.o [5]
  .rodata             const    0x08009024    0x28  main.o [1]
  .text               ro code  0x0800904c    0x28  data_init.o [5]
  .rodata             const    0x08009074    0x24  main.o [1]
  .rodata             const    0x08009098    0x24  main.o [1]
  .rodata             const    0x080090bc    0x24  main.o [1]
  .rodata             const    0x080090e0    0x24  main.o [1]
  .iar.init_table     const    0x08009104    0x20  - Linker created -
  .rodata             const    0x08009124    0x20  main.o [1]
  .rodata             const    0x08009144    0x20  main.o [1]
  .rodata             const    0x08009164    0x20  main.o [1]
  .rodata             const    0x08009184    0x1c  main.o [1]
  .rodata             const    0x080091a0    0x1c  main.o [1]
  .rodata             const    0x080091bc    0x1c  main.o [1]
  .rodata             const    0x080091d8    0x1c  main.o [1]
  .rodata             const    0x080091f4    0x1c  main.o [1]
  .rodata             const    0x08009210    0x1c  main.o [1]
  .rodata             const    0x0800922c    0x1c  main.o [1]
  .text               ro code  0x08009248    0x1a  cmain.o [5]
  .text               ro code  0x08009262     0x4  low_level_init.o [3]
  .text               ro code  0x08009266     0x4  exit.o [3]
  .text               ro code  0x0800926c     0xa  cexit.o [5]
  .text               ro code  0x08009278    0x14  exit.o [6]
  .rodata             const    0x0800928c    0x18  main.o [1]
  .rodata             const    0x080092a4    0x18  main.o [1]
  .rodata             const    0x080092bc    0x18  main.o [1]
  .rodata             const    0x080092d4    0x18  main.o [1]
  .rodata             const    0x080092ec    0x18  main.o [1]
  .rodata             const    0x08009304    0x18  main.o [1]
  .rodata             const    0x0800931c    0x18  main.o [1]
  .rodata             const    0x08009334    0x18  main.o [1]
  .rodata             const    0x0800934c    0x18  main.o [1]
  .rodata             const    0x08009364    0x18  main.o [1]
  .rodata             const    0x0800937c    0x18  main.o [1]
  .rodata             const    0x08009394    0x18  main.o [1]
  .rodata             const    0x080093ac    0x18  main.o [1]
  .rodata             const    0x080093c4    0x18  main.o [1]
  .rodata             const    0x080093dc    0x18  main.o [1]
  .text               ro code  0x080093f4    0x16  xprout.o [3]
  .text               ro code  0x0800940c     0xc  putchar.o [3]
  .rodata             const    0x08009418    0x14  main.o [1]
  .rodata             const    0x0800942c    0x14  main.o [1]
  .rodata             const    0x08009440    0x14  main.o [1]
  .rodata             const    0x08009454    0x14  main.o [1]
  .rodata             const    0x08009468    0x14  main.o [1]
  .rodata             const    0x0800947c    0x14  main.o [1]
  .rodata             const    0x08009490    0x14  main.o [1]
  .rodata             const    0x080094a4    0x14  main.o [1]
  .rodata             const    0x080094b8    0x14  main.o [1]
  .rodata             const    0x080094cc    0x14  main.o [1]
  .rodata             const    0x080094e0    0x14  main.o [1]
  .rodata             const    0x080094f4    0x14  main.o [1]
  .rodata             const    0x08009508    0x14  main.o [1]
  .rodata             const    0x0800951c    0x14  main.o [1]
  .rodata             const    0x08009530    0x14  main.o [1]
  .rodata             const    0x08009544    0x14  main.o [1]
  .rodata             const    0x08009558    0x14  main.o [1]
  .rodata             const    0x0800956c    0x14  nt3h1101.o [1]
  .rodata             const    0x08009580    0x10  main.o [1]
  .rodata             const    0x08009590    0x10  main.o [1]
  .rodata             const    0x080095a0    0x10  main.o [1]
  .rodata             const    0x080095b0    0x10  main.o [1]
  .rodata             const    0x080095c0    0x10  main.o [1]
  .rodata             const    0x080095d0    0x10  main.o [1]
  .rodata             const    0x080095e0    0x10  main.o [1]
  .text               ro code  0x080095f0    0x10  startup_stm32l1xx_mdp.o [1]
  .text               ro code  0x08009600    0x10  getchar.o [3]
  .text               ro code  0x08009610     0xe  xscin.o [3]
  .rodata             const    0x08009620     0xc  main.o [1]
  .rodata             const    0x0800962c     0xc  main.o [1]
  .rodata             const    0x08009638     0xc  main.o [1]
  .rodata             const    0x08009644     0xc  main.o [1]
  .text               ro code  0x08009650     0xc  cstartup_M.o [5]
  .rodata             const    0x0800965c     0x8  main.o [1]
  .rodata             const    0x08009664     0x8  main.o [1]
  .rodata             const    0x0800966c     0x8  tasks.o [1]
  .rodata             const    0x08009674     0x4  heap_4.o [1]
  .rodata             const    0x08009678     0x4  port.o [1]
  .text               ro code  0x0800967c     0x4  startup_stm32l1xx_mdp.o [1]
  .text               ro code  0x08009680     0x4  startup_stm32l1xx_mdp.o [1]
  .text               ro code  0x08009684     0x4  startup_stm32l1xx_mdp.o [1]
  .text               ro code  0x08009688     0x4  startup_stm32l1xx_mdp.o [1]
  .text               ro code  0x0800968c     0x4  startup_stm32l1xx_mdp.o [1]
  .text               ro code  0x08009690     0x4  startup_stm32l1xx_mdp.o [1]
  .text               ro code  0x08009694     0x4  startup_stm32l1xx_mdp.o [1]
  .text               ro code  0x08009698     0x4  startup_stm32l1xx_mdp.o [1]
  .text               ro code  0x0800969c     0x4  startup_stm32l1xx_mdp.o [1]
  .text               ro code  0x080096a0     0x4  startup_stm32l1xx_mdp.o [1]
  .text               ro code  0x080096a4     0x4  startup_stm32l1xx_mdp.o [1]
  .text               ro code  0x080096a8     0x4  startup_stm32l1xx_mdp.o [1]
  .text               ro code  0x080096ac     0x4  startup_stm32l1xx_mdp.o [1]
  .text               ro code  0x080096b0     0x4  startup_stm32l1xx_mdp.o [1]
  .text               ro code  0x080096b4     0x4  startup_stm32l1xx_mdp.o [1]
  .text               ro code  0x080096b8     0x4  startup_stm32l1xx_mdp.o [1]
  .text               ro code  0x080096bc     0x4  startup_stm32l1xx_mdp.o [1]
  .text               ro code  0x080096c0     0x4  startup_stm32l1xx_mdp.o [1]
  .text               ro code  0x080096c4     0x4  startup_stm32l1xx_mdp.o [1]
  .text               ro code  0x080096c8     0x4  startup_stm32l1xx_mdp.o [1]
  .text               ro code  0x080096cc     0x4  startup_stm32l1xx_mdp.o [1]
  .text               ro code  0x080096d0     0x4  startup_stm32l1xx_mdp.o [1]
  .text               ro code  0x080096d4     0x4  startup_stm32l1xx_mdp.o [1]
  .text               ro code  0x080096d8     0x4  startup_stm32l1xx_mdp.o [1]
  .text               ro code  0x080096dc     0x4  startup_stm32l1xx_mdp.o [1]
  .text               ro code  0x080096e0     0x4  startup_stm32l1xx_mdp.o [1]
  .text               ro code  0x080096e4     0x4  startup_stm32l1xx_mdp.o [1]
  .text               ro code  0x080096e8     0x4  startup_stm32l1xx_mdp.o [1]
  .text               ro code  0x080096ec     0x4  startup_stm32l1xx_mdp.o [1]
  .text               ro code  0x080096f0     0x4  startup_stm32l1xx_mdp.o [1]
  .text               ro code  0x080096f4     0x4  startup_stm32l1xx_mdp.o [1]
  .text               ro code  0x080096f8     0x4  startup_stm32l1xx_mdp.o [1]
  .text               ro code  0x080096fc     0x4  startup_stm32l1xx_mdp.o [1]
  .text               ro code  0x08009700     0x4  startup_stm32l1xx_mdp.o [1]
  .text               ro code  0x08009704     0x4  startup_stm32l1xx_mdp.o [1]
  .text               ro code  0x08009708     0x4  startup_stm32l1xx_mdp.o [1]
  .text               ro code  0x0800970c     0x4  startup_stm32l1xx_mdp.o [1]
  .text               ro code  0x08009710     0x4  startup_stm32l1xx_mdp.o [1]
  .text               ro code  0x08009714     0x4  startup_stm32l1xx_mdp.o [1]
  .text               ro code  0x08009718     0x4  startup_stm32l1xx_mdp.o [1]
  .text               ro code  0x0800971c     0x4  startup_stm32l1xx_mdp.o [1]
  .text               ro code  0x08009720     0x4  startup_stm32l1xx_mdp.o [1]
  .text               ro code  0x08009724     0x4  startup_stm32l1xx_mdp.o [1]
  .text               ro code  0x08009728     0x4  startup_stm32l1xx_mdp.o [1]
  .text               ro code  0x0800972c     0x4  startup_stm32l1xx_mdp.o [1]
  .text               ro code  0x08009730     0x4  startup_stm32l1xx_mdp.o [1]
  .text               ro code  0x08009734     0x4  startup_stm32l1xx_mdp.o [1]
  .text               ro code  0x08009738     0x4  startup_stm32l1xx_mdp.o [1]
  .text               ro code  0x0800973c     0x4  startup_stm32l1xx_mdp.o [1]
  .text               ro code  0x08009740     0x4  startup_stm32l1xx_mdp.o [1]
  .text               ro code  0x08009744     0x4  startup_stm32l1xx_mdp.o [1]
  .text               ro code  0x08009748     0x4  startup_stm32l1xx_mdp.o [1]
  .text               ro code  0x0800974c     0x4  startup_stm32l1xx_mdp.o [1]
  .text               ro code  0x08009750     0x4  startup_stm32l1xx_mdp.o [1]
  .text               ro code  0x08009754     0x4  startup_stm32l1xx_mdp.o [1]
  .text               ro code  0x08009758     0x4  startup_stm32l1xx_mdp.o [1]
  .text               ro code  0x0800975c     0x4  startup_stm32l1xx_mdp.o [1]
  .text               ro code  0x08009760     0x4  startup_stm32l1xx_mdp.o [1]
  .text               ro code  0x08009764     0x4  startup_stm32l1xx_mdp.o [1]
  .text               ro code  0x08009768     0x4  startup_stm32l1xx_mdp.o [1]
  .text               ro code  0x0800976c     0x4  startup_stm32l1xx_mdp.o [1]
  .text               ro code  0x08009770     0x4  startup_stm32l1xx_mdp.o [1]
  .text               ro code  0x08009774     0x4  startup_stm32l1xx_mdp.o [1]
  .rodata             const    0x08009778     0x0  zero_init3.o [5]
  .rodata             const    0x08009778     0x0  lz77_init_single.o [5]
  Initializer bytes   const    0x08009778    0x62  <for P2-1>
                             - 0x080097da  0x96b6

"P2", part 1 of 3:                          0x380
  P2-1                         0x20000000   0x380  <Init block>
    .data             inited   0x20000000     0x4  port.o [1]
    .data             inited   0x20000004     0xc  stm32l1xx_rcc.o [1]
    .data             inited   0x20000010    0x10  stm32l1xx_rcc.o [1]
    .data             inited   0x20000020   0x1e0  WS2812.o [1]
    .data             inited   0x20000200    0x40  xfiles.o [3]
    .data             inited   0x20000240    0x40  xfiles.o [3]
    __DLIB_PERTHREAD  inited   0x20000280     0x4  errno.o [3]
    __DLIB_PERTHREAD  inited   0x20000284    0x88  localeconv.o [3]
    __DLIB_PERTHREAD  inited   0x2000030c    0x74  setlocale.o [3]
                             - 0x20000380   0x380

"P2", part 2 of 3:                          0x800
  CSTACK                       0x20000380   0x800  <Block>
    CSTACK            uninit   0x20000380   0x800  <Block tail>
                             - 0x20000b80   0x800

"P2", part 3 of 3:                         0x5e0c
  .bss                zero     0x20000b80  0x4400  heap_4.o [1]
  .bss                zero     0x20004f80   0x400  usart.o [1]
  .bss                zero     0x20005380   0x400  usart.o [1]
  .bss                zero     0x20005780   0x400  usart.o [1]
  .bss                zero     0x20005b80   0x400  usart.o [1]
  .bss                zero     0x20005f80   0x400  usart.o [1]
  .bss                zero     0x20006380   0x400  usart.o [1]
  .bss                zero     0x20006780    0x64  tasks.o [1]
  .bss                zero     0x200067e4    0x50  xfiles.o [3]
  .bss                zero     0x20006834    0x28  usart.o [1]
  .bss                zero     0x2000685c    0x28  usart.o [1]
  .bss                zero     0x20006884    0x28  usart.o [1]
  .bss                zero     0x200068ac    0x14  tasks.o [1]
  .bss                zero     0x200068c0    0x14  tasks.o [1]
  .bss                zero     0x200068d4    0x14  tasks.o [1]
  .bss                zero     0x200068e8    0x14  tasks.o [1]
  .bss                zero     0x200068fc    0x14  tasks.o [1]
  .bss                zero     0x20006910     0x8  heap_4.o [1]
  .bss                zero     0x20006918     0x4  adxl345.o [1]
  .bss                zero     0x2000691c     0x4  adxl345.o [1]
  .bss                zero     0x20006920     0x4  adxl345.o [1]
  .bss                zero     0x20006924     0x4  adxl345.o [1]
  .bss                zero     0x20006928     0x4  bsp.o [1]
  .bss                zero     0x2000692c     0x4  heap_4.o [1]
  .bss                zero     0x20006930     0x4  heap_4.o [1]
  .bss                zero     0x20006934     0x4  heap_4.o [1]
  .bss                zero     0x20006938     0x4  heap_4.o [1]
  .bss                zero     0x2000693c     0x4  main.o [1]
  .bss                zero     0x20006940     0x4  nt3h1101.o [1]
  .bss                zero     0x20006944     0x4  opt3001.o [1]
  .bss                zero     0x20006948     0x4  port.o [1]
  .bss                zero     0x2000694c     0x4  SHT20.o [1]
  .bss                zero     0x20006950     0x4  tasks.o [1]
  .bss                zero     0x20006954     0x4  tasks.o [1]
  .bss                zero     0x20006958     0x4  tasks.o [1]
  .bss                zero     0x2000695c     0x4  tasks.o [1]
  .bss                zero     0x20006960     0x4  tasks.o [1]
  .bss                zero     0x20006964     0x4  tasks.o [1]
  .bss                zero     0x20006968     0x4  tasks.o [1]
  .bss                zero     0x2000696c     0x4  tasks.o [1]
  .bss                zero     0x20006970     0x4  tasks.o [1]
  .bss                zero     0x20006974     0x4  tasks.o [1]
  .bss                zero     0x20006978     0x4  tasks.o [1]
  .bss                zero     0x2000697c     0x4  tasks.o [1]
  .bss                zero     0x20006980     0x4  tasks.o [1]
  .bss                zero     0x20006984     0x4  tasks.o [1]
  .bss                zero     0x20006988     0x1  main.o [1]
  .bss                zero     0x20006989     0x1  main.o [1]
  .bss                zero     0x2000698a     0x1  port.o [1]
  .bss                zero     0x2000698b     0x1  stm32l1xx_it.o [1]
                             - 0x2000698c  0x5e0c


*******************************************************************************
*** INIT TABLE
***

          Address     Size
          -------     ----
Zero (__iar_zero_init3)
    1 destination range, total size 0x5e0c:
          0x20000b80  0x5e0c

Copy/lz77 (__iar_lz77_init_single3)
    1 source range, total size 0x62 (10% of destination):
          0x08009778    0x62
    1 destination range, total size 0x380:
          0x20000000   0x380



*******************************************************************************
*** MODULE SUMMARY
***

    Module                   ro code  ro data  rw data
    ------                   -------  -------  -------
F:\phoenix\PRO\IAR+FreeRTOS+STM32L1xx\Project\EWARMv6\Debug\Obj: [1]
    I2c.o                        352
    SHT20.o                    1 642                 4
    WS2812.o                     764       53      480
    adc.o                        212
    adxl345.o                  2 028                16
    beep.o                        84
    bsp.o                         64                 4
    delay.o                       48
    dismantle.o                  124
    eeprom.o                     124
    hal_acc_sensor.o              32
    hal_beep.o                    22
    hal_brightness.o              84
    hal_dismantle.o                8
    hal_eeprom.o                  54
    hal_energy.o                  12
    hal_led.o                     32
    hal_nfc.o                    224
    hal_platform.o                80
    hal_tempRh.o                  26
    heap_4.o                     588        4   17 432
    list.o                       158
    main.o                     1 836    1 572        6
    misc.o                       136
    nfc_module.o                 752
    nt3h1101.o                 1 728       20        4
    opt3001.o                  2 184                 4
    platform.o                   344
    port.o                       444        4        9
    portasm.o                    148
    queue.o                    1 048
    startup_stm32l1xx_mdp.o      560
    stm32l1xx_adc.o              640
    stm32l1xx_dma.o              484
    stm32l1xx_exti.o             188
    stm32l1xx_flash.o            272
    stm32l1xx_gpio.o             258
    stm32l1xx_i2c.o              584
    stm32l1xx_it.o                90                 1
    stm32l1xx_rcc.o              552        3       28
    stm32l1xx_syscfg.o           100
    stm32l1xx_tim.o              216
    stm32l1xx_usart.o            524
    system_stm32l1xx.o           304
    tasks.o                    2 196        8      256
    usart.o                    1 488             6 264
    --------------------------------------------------
    Total:                    23 838    1 664   24 508

command line: [2]
    --------------------------------------------------
    Total:

dl7M_tlf.a: [3]
    div.o                         14
    errno.o                       12                 4
    exit.o                         4
    getchar.o                     16
    isxxx.o                       20
    localeconv.o                 108       15      136
    low_level_init.o               4
    printf.o                      36
    putchar.o                     12
    scanf.o                       36
    setlocale.o                   24       13      116
    tolower.o                     20
    ungetc.o                      82
    xfiles.o                               14      208
    xlocale_c.o                   32
    xprintffull_nomb.o         3 470
    xprout.o                      22
    xscanfsmall_nomb.o         1 272
    xscin.o                       14
    xstol.o                      136
    xstoul.o                     408
    xsyslock_nop.o                 4
    xtls.o                         2
    --------------------------------------------------
    Total:                     5 748       42      464

m7M_tl.a: [4]
    DblAdd.o                     232
    DblCmpEq.o                    32
    DblCmpGe.o                    46
    DblCmpLe.o                    46
    DblDiv.o                     598
    DblMul.o                     418
    DblSub.o                     384
    DblToFlt.o                   144
    DblToI32.o                    88
    FltAdd.o                     132
    FltDiv.o                     252
    FltMul.o                     216
    FltSub.o                     214
    FltToDbl.o                    78
    FltToS32.o                    68
    FltToU32.o                    36
    I32ToDbl.o                    48
    I32ToFlt.o                    50
    pow.o                      2 128
    xdint.o                      122
    xdnorm.o                      66
    xdscale.o                    268
    xdtest.o                      50
    xexp.o                       700
    xlog.o                       172
    --------------------------------------------------
    Total:                     6 588

rt7M_tl.a: [5]
    ABImemcpy_unaligned.o        118
    ABImemset.o                  102
    I64DivMod.o                  238
    I64DivZer.o                    2
    cexit.o                       10
    cmain.o                       26
    cstartup_M.o                  12
    data_init.o                   40
    lz77_init_single.o           118
    memchr.o                      88
    strchr.o                      22
    strlen.o                      54
    zero_init3.o                  64
    --------------------------------------------------
    Total:                       894

shb_l.a: [6]
    exit.o                        20
    --------------------------------------------------
    Total:                        20

    Gaps                          46        2
    Linker created                         32    2 048
------------------------------------------------------
    Grand Total:              37 134    1 740   27 020


*******************************************************************************
*** ENTRY LIST
***

Entry                      Address    Size  Type      Object
-----                      -------    ----  ----      ------
.iar.init_table$$Base   0x08009104           --   Gb  - Linker created -
.iar.init_table$$Limit  0x08009124           --   Gb  - Linker created -
?main                   0x08009249          Code  Gb  cmain.o [5]
ADC_Cmd                 0x08008871    0x1a  Code  Gb  stm32l1xx_adc.o [1]
ADC_DeInit              0x08008801    0x20  Code  Gb  stm32l1xx_adc.o [1]
ADC_GetConversionValue  0x08008a61     0x6  Code  Gb  stm32l1xx_adc.o [1]
ADC_GetFlagStatus       0x08008a67    0x1a  Code  Gb  stm32l1xx_adc.o [1]
ADC_Init                0x08008821    0x50  Code  Gb  stm32l1xx_adc.o [1]
ADC_RegularChannelConfig
                        0x08008899   0x1be  Code  Gb  stm32l1xx_adc.o [1]
ADC_SoftwareStartConv   0x08008a57     0xa  Code  Gb  stm32l1xx_adc.o [1]
APBAHBPrescTable        0x20000010    0x10  Data  Lc  stm32l1xx_rcc.o [1]
AppTaskCreate           0x0800564d    0x26  Code  Lc  main.o [1]
BusFault_Handler        0x08008f0b     0x2  Code  Gb  stm32l1xx_it.o [1]
CSTACK$$Base            0x20000380           --   Gb  - Linker created -
CSTACK$$Limit           0x20000b80           --   Gb  - Linker created -
ComToUart               0x08006271    0x2a  Code  Lc  usart.o [1]
ConfigUartNVIC          0x0800664b    0x4c  Code  Lc  usart.o [1]
DATA_EEPROM_FixedTimeProgramCmd
                        0x08008af7    0x2a  Code  Gb  stm32l1xx_flash.o [1]
DATA_EEPROM_Lock        0x08008ae5    0x12  Code  Gb  stm32l1xx_flash.o [1]
DATA_EEPROM_ProgramByte
                        0x08008b21    0x2a  Code  Gb  stm32l1xx_flash.o [1]
DATA_EEPROM_Unlock      0x08008ac5    0x20  Code  Gb  stm32l1xx_flash.o [1]
DMA_ClearFlag           0x08008199    0x10  Code  Gb  stm32l1xx_dma.o [1]
DMA_Cmd                 0x0800814d    0x1c  Code  Gb  stm32l1xx_dma.o [1]
DMA_DeInit              0x08008005   0x10a  Code  Gb  stm32l1xx_dma.o [1]
DMA_GetFlagStatus       0x0800816f    0x2a  Code  Gb  stm32l1xx_dma.o [1]
DMA_Init                0x0800810f    0x3e  Code  Gb  stm32l1xx_dma.o [1]
DMA_SetCurrDataCounter  0x08008169     0x6  Code  Gb  stm32l1xx_dma.o [1]
DebugMon_Handler        0x08008f0f     0x2  Code  Gb  stm32l1xx_it.o [1]
EXTI15_10_IRQHandler    0x08008f41    0x1e  Code  Gb  stm32l1xx_it.o [1]
EXTI1_IRQHandler        0x08008f11    0x28  Code  Gb  stm32l1xx_it.o [1]
EXTI_ClearITPendingBit  0x08003887     0x6  Code  Gb  stm32l1xx_exti.o [1]
EXTI_GetITStatus        0x0800386d    0x1a  Code  Gb  stm32l1xx_exti.o [1]
EXTI_Init               0x080037e5    0x88  Code  Gb  stm32l1xx_exti.o [1]
FLASH_GetStatus         0x08008b4b    0x36  Code  Gb  stm32l1xx_flash.o [1]
FLASH_WaitForLastOperation
                        0x08008b99    0x3c  Code  Gb  stm32l1xx_flash.o [1]
GPIO_Init               0x0800367d    0xa4  Code  Gb  stm32l1xx_gpio.o [1]
GPIO_PinAFConfig        0x08003725    0x5a  Code  Gb  stm32l1xx_gpio.o [1]
GPIO_SetBits            0x08003721     0x4  Code  Gb  stm32l1xx_gpio.o [1]
HardFault_Handler       0x08008f07     0x2  Code  Gb  stm32l1xx_it.o [1]
I2C_AcknowledgeConfig   0x08003239    0x1c  Code  Gb  stm32l1xx_i2c.o [1]
I2C_CheckEvent          0x08003277    0x38  Code  Gb  stm32l1xx_i2c.o [1]
I2C_Cmd                 0x080031e5    0x1c  Code  Gb  stm32l1xx_i2c.o [1]
I2C_DeInit              0x080030ad    0x36  Code  Gb  stm32l1xx_i2c.o [1]
I2C_GenerateSTART       0x08003201    0x1c  Code  Gb  stm32l1xx_i2c.o [1]
I2C_GenerateSTOP        0x0800321d    0x1c  Code  Gb  stm32l1xx_i2c.o [1]
I2C_GetFlagStatus       0x080032af    0x46  Code  Gb  stm32l1xx_i2c.o [1]
I2C_Init                0x080030e3    0xf2  Code  Gb  stm32l1xx_i2c.o [1]
I2C_ReceiveData         0x08003271     0x6  Code  Gb  stm32l1xx_i2c.o [1]
I2C_Send7bitAddress     0x08003255    0x16  Code  Gb  stm32l1xx_i2c.o [1]
I2C_SendData            0x0800326b     0x6  Code  Gb  stm32l1xx_i2c.o [1]
InitHardUart            0x0800642d   0x21e  Code  Lc  usart.o [1]
LED_BYTE_Buffer         0x20000020   0x1e0  Data  Gb  WS2812.o [1]
LoadInt                 0x080006a9    0x6e  Code  Lc  xprintffull_nomb.o [3]
MemManage_Handler       0x08008f09     0x2  Code  Gb  stm32l1xx_it.o [1]
NMI_Handler             0x08008f05     0x2  Code  Gb  stm32l1xx_it.o [1]
NVIC_Init               0x080038ab    0x6a  Code  Gb  misc.o [1]
NVIC_PriorityGroupConfig
                        0x080038a1     0xa  Code  Gb  misc.o [1]
NVIC_SystemReset        0x08007031    0x1a  Code  Lc  platform.o [1]
PLLMulTable             0x20000004     0xc  Data  Lc  stm32l1xx_rcc.o [1]
PendSV_Handler          0x080022e9          Code  Gb  portasm.o [1]
RCC_AHBPeriphClockCmd   0x08003569    0x1e  Code  Gb  stm32l1xx_rcc.o [1]
RCC_APB1PeriphClockCmd  0x080035a5    0x1e  Code  Gb  stm32l1xx_rcc.o [1]
RCC_APB1PeriphResetCmd  0x080035e1    0x1e  Code  Gb  stm32l1xx_rcc.o [1]
RCC_APB2PeriphClockCmd  0x08003587    0x1e  Code  Gb  stm32l1xx_rcc.o [1]
RCC_APB2PeriphResetCmd  0x080035c3    0x1e  Code  Gb  stm32l1xx_rcc.o [1]
RCC_GetClocksFreq       0x0800345f   0x10a  Code  Gb  stm32l1xx_rcc.o [1]
RCC_GetFlagStatus       0x080035ff    0x46  Code  Gb  stm32l1xx_rcc.o [1]
RCC_HSICmd              0x08003455     0xa  Code  Gb  stm32l1xx_rcc.o [1]
Region$$Table$$Base     0x08009104           --   Gb  - Linker created -
Region$$Table$$Limit    0x08009124           --   Gb  - Linker created -
SVC_Handler             0x0800233b          Code  Gb  portasm.o [1]
SYSCFG_EXTILineConfig   0x0800378b    0x50  Code  Gb  stm32l1xx_syscfg.o [1]
SYSCFG_GetBootMode      0x08003781     0xa  Code  Gb  stm32l1xx_syscfg.o [1]
SetSysClock             0x08008d4b    0xb0  Code  Lc  system_stm32l1xx.o [1]
SysTick_Handler         0x080024a5    0x1e  Code  Gb  port.o [1]
SystemInit              0x08008cf9    0x52  Code  Gb  system_stm32l1xx.o [1]
TIM_Cmd                 0x08008459    0x1c  Code  Gb  stm32l1xx_tim.o [1]
TIM_DMACmd              0x080084b7    0x16  Code  Gb  stm32l1xx_tim.o [1]
TIM_OC1Init             0x08008475    0x42  Code  Gb  stm32l1xx_tim.o [1]
TIM_TimeBaseInit        0x080083f5    0x4e  Code  Gb  stm32l1xx_tim.o [1]
UARTx_TX_DMA_Init       0x08006221    0x50  Code  Gb  usart.o [1]
USART1_IRQHandler       0x08006737     0xa  Code  Gb  usart.o [1]
USART2_IRQHandler       0x08006741     0xa  Code  Gb  usart.o [1]
USART3_IRQHandler       0x0800674b     0xa  Code  Gb  usart.o [1]
USART_ClearFlag         0x08008379     0xc  Code  Gb  stm32l1xx_usart.o [1]
USART_Cmd               0x080082d9    0x1c  Code  Gb  stm32l1xx_usart.o [1]
USART_GetFlagStatus     0x0800835b    0x1e  Code  Gb  stm32l1xx_usart.o [1]
USART_GetITStatus       0x08008385    0x70  Code  Gb  stm32l1xx_usart.o [1]
USART_ITConfig          0x08008305    0x56  Code  Gb  stm32l1xx_usart.o [1]
USART_Init              0x080081e9    0xe8  Code  Gb  stm32l1xx_usart.o [1]
USART_ReceiveData       0x080082fd     0x8  Code  Gb  stm32l1xx_usart.o [1]
USART_SendData          0x080082f5     0x8  Code  Gb  stm32l1xx_usart.o [1]
UartGetChar             0x08006697    0x50  Code  Lc  usart.o [1]
UartIRQ                 0x080066e7    0x50  Code  Lc  usart.o [1]
UartVarInit             0x080062bd   0x170  Code  Lc  usart.o [1]
UsageFault_Handler      0x08008f0d     0x2  Code  Gb  stm32l1xx_it.o [1]
WS2812_Timer_Init       0x080067e1    0xee  Code  Gb  WS2812.o [1]
_GenldFullNoMb          0x08000c1f   0x24c  Code  Lc  xprintffull_nomb.o [3]
_GetintSmallNoMb        0x08006d95   0x232  Code  Lc  xscanfsmall_nomb.o [3]
_GetstrSmallNoMb        0x08006ce7    0xac  Code  Lc  xscanfsmall_nomb.o [3]
_IsdstStr               0x20000310     0x4  Data  Gb  setlocale.o [3]
_LdtobFullNoMb          0x0800081d   0x3fc  Code  Lc  xprintffull_nomb.o [3]
_LitobFullNoMb          0x08000717   0x106  Code  Lc  xprintffull_nomb.o [3]
_LocaleC_isspace        0x08008bed    0x14  Code  Gb  xlocale_c.o [3]
_LocaleC_tolower        0x08008ceb     0xc  Code  Gb  xlocale_c.o [3]
_LocaleForCat           0x08008bd5    0x12  Code  Gb  setlocale.o [3]
_LocaleReturnString     0x20000330    0x50  Data  Lc  setlocale.o [3]
_Locale_Profile         0x20000314    0x1c  Data  Gb  setlocale.o [3]
_Locale_aeabi_lconv     0x200002d4    0x38  Data  Gb  localeconv.o [3]
_Locale_lconv           0x20000284    0x50  Data  Gb  localeconv.o [3]
_PrintfFullNoMb         0x08000125   0x57e  Code  Gb  xprintffull_nomb.o [3]
_Prout                  0x080093f5    0x16  Code  Gb  xprout.o [3]
_PutcharsFullNoMb       0x08000e6b    0x2e  Code  Lc  xprintffull_nomb.o [3]
_ScanfSmallNoMb         0x08006aff   0x1e2  Code  Gb  xscanfsmall_nomb.o [3]
_Scin                   0x08009611     0xe  Code  Gb  xscin.o [3]
_TzoneStr               0x2000030c     0x4  Data  Gb  setlocale.o [3]
_UngetN                 0x08006ae5    0x1a  Code  Lc  xscanfsmall_nomb.o [3]
__aeabi_cdcmpeq         0x08004385          Code  Gb  DblCmpEq.o [4]
__aeabi_cdcmple         0x08001179          Code  Gb  DblCmpLe.o [4]
__aeabi_cdrcmple        0x080011a9          Code  Gb  DblCmpGe.o [4]
__aeabi_d2f             0x08004279          Code  Gb  DblToFlt.o [4]
__aeabi_d2iz            0x080012e5          Code  Gb  DblToI32.o [4]
__aeabi_d2uiz           0x08001311          Code  Gb  DblToI32.o [4]
__aeabi_dadd            0x08001969          Code  Gb  DblAdd.o [4]
__aeabi_ddiv            0x08001691          Code  Gb  DblDiv.o [4]
__aeabi_dmul            0x080014ed          Code  Gb  DblMul.o [4]
__aeabi_dsub            0x0800136d          Code  Gb  DblSub.o [4]
__aeabi_errno_addr      0x080043a5     0x6  Code  Gb  errno.o [3]
__aeabi_f2d             0x08005cf1          Code  Gb  FltToDbl.o [4]
__aeabi_f2iz            0x08008a81          Code  Gb  FltToS32.o [4]
__aeabi_f2uiz           0x08003a01          Code  Gb  FltToU32.o [4]
__aeabi_fadd            0x0800877d          Code  Gb  FltAdd.o [4]
__aeabi_fdiv            0x08004f6d          Code  Gb  FltDiv.o [4]
__aeabi_fmul            0x08003929          Code  Gb  FltMul.o [4]
__aeabi_i2d             0x0800133d          Code  Gb  I32ToDbl.o [4]
__aeabi_i2f             0x08004f39          Code  Gb  I32ToFlt.o [4]
__aeabi_ldiv0           0x08001965          Code  Gb  I64DivZer.o [5]
__aeabi_memset          0x08006175          Code  Gb  ABImemset.o [5]
__aeabi_ui2d            0x08001351          Code  Gb  I32ToDbl.o [4]
__aeabi_ui2f            0x08004f4d          Code  Gb  I32ToFlt.o [4]
__aeabi_uldivmod        0x08000fd1          Code  Gb  I64DivMod.o [5]
__cmain                 0x08009249          Code  Gb  cmain.o [5]
__exit                  0x08009279    0x14  Code  Gb  exit.o [6]
__iar_Dint              0x08004309    0x7a  Code  Gb  xdint.o [4]
__iar_Dnorm             0x08001137    0x42  Code  Gb  xdnorm.o [4]
__iar_Dscale            0x080011d9   0x10c  Code  Gb  xdscale.o [4]
__iar_Dtest             0x08004719    0x32  Code  Gb  xdtest.o [4]
__iar_Errno             0x20000280     0x4  Data  Gb  errno.o [3]
__iar_Exp               0x0800445d   0x2b6  Code  Gb  xexp.o [4]
__iar_Locale_lconv_init
                        0x080018e9    0x3a  Code  Gb  localeconv.o [3]
__iar_Lockfilelock      0x08008fe1     0x2  Code  Gb  xsyslock_nop.o [3]
__iar_Logpoly           0x080043b1    0x70  Code  Gb  xlog.o [4]
__iar_Memchr            0x08000f79          Code  Gb  memchr.o [5]
__iar_Memset            0x08006175          Code  Gb  ABImemset.o [5]
__iar_Memset_word       0x0800617d          Code  Gb  ABImemset.o [5]
__iar_Stdin             0x20000200    0x40  Data  Gb  xfiles.o [3]
__iar_Stdout            0x20000240    0x40  Data  Gb  xfiles.o [3]
__iar_Stolx             0x0800855d    0x88  Code  Gb  xstol.o [3]
__iar_Stoul             0x08008729     0x4  Code  Gb  xstoul.o [3]
__iar_Stoulx            0x080085e5   0x13e  Code  Gb  xstoul.o [3]
__iar_Strchr            0x08000f29          Code  Gb  strchr.o [5]
__iar_Unlockfilelock    0x08008fe3     0x2  Code  Gb  xsyslock_nop.o [3]
__iar_d2uiz             0x0800131d          Code  Gb  DblToI32.o [4]
__iar_dadd              0x0800197d          Code  Gb  DblAdd.o [4]
__iar_data_init3        0x0800904d    0x28  Code  Gb  data_init.o [5]
__iar_dlib_perthread_access
                        0x08001a51     0x2  Code  Gb  xtls.o [3]
__iar_dsub              0x08001381          Code  Gb  DblSub.o [4]
__iar_dsubStart         0x08001393          Code  Gb  DblSub.o [4]
__iar_fadd              0x0800878d          Code  Gb  FltAdd.o [4]
__iar_fsub              0x08008c15          Code  Gb  FltSub.o [4]
__iar_fsubStart         0x08008c25          Code  Gb  FltSub.o [4]
__iar_lz77_init_single3
                        0x08000eb3    0x76  Code  Gb  lz77_init_single.o [5]
__iar_program_start     0x08009651          Code  Gb  cstartup_M.o [5]
__iar_ui2d              0x08001355          Code  Gb  I32ToDbl.o [4]
__iar_ui2f              0x08004f51          Code  Gb  I32ToFlt.o [4]
__iar_unaligned___aeabi_memcpy
                        0x080010c1          Code  Gb  ABImemcpy_unaligned.o [5]
__iar_unaligned___aeabi_memcpy4
                        0x080010e1          Code  Gb  ABImemcpy_unaligned.o [5]
__iar_unaligned___aeabi_memcpy8
                        0x080010e1          Code  Gb  ABImemcpy_unaligned.o [5]
__iar_zero_init3        0x08008fe5    0x40  Code  Gb  zero_init3.o [5]
__low_level_init        0x08009263     0x4  Code  Gb  low_level_init.o [3]
__ungetchar             0x08009607     0x6  Code  Gb  getchar.o [3]
__vector_table          0x08000000          Data  Gb  startup_stm32l1xx_mdp.o [1]
_call_main              0x08009255          Code  Gb  cmain.o [5]
_exit                   0x0800926d          Code  Gb  cexit.o [5]
_main                   0x0800925f          Code  Gb  cmain.o [5]
adxl345_init            0x08004da7    0xc2  Code  Gb  adxl345.o [1]
adxl345_read_bytes      0x08004ae3   0x2c4  Code  Gb  adxl345.o [1]
adxl345_read_one_byte   0x0800474d   0x246  Code  Gb  adxl345.o [1]
adxl345_timeout         0x20006924     0x4  Data  Lc  adxl345.o [1]
adxl345_write_one_byte  0x08004993   0x150  Code  Gb  adxl345.o [1]
app_task_init           0x0800507d    0x26  Code  Lc  main.o [1]
beep                    0x0800700f    0x16  Code  Gb  beep.o [1]
beep_init               0x08006fdd    0x32  Code  Gb  beep.o [1]
bsp_Init                0x080057a9    0x2c  Code  Gb  bsp.o [1]
bsp_InitUart            0x08006211    0x10  Code  Gb  usart.o [1]
bw_rate_reg             0x20006920     0x4  Data  Gb  adxl345.o [1]
comGetChar              0x0800629b    0x22  Code  Gb  usart.o [1]
data_format_reg         0x20006918     0x4  Data  Gb  adxl345.o [1]
delay                   0x08005795    0x14  Code  Gb  bsp.o [1]
delay_ms                0x08008f71    0x1e  Code  Gb  delay.o [1]
delay_us                0x08008f5f    0x12  Code  Gb  delay.o [1]
digits                  0x0800872c    0x28  Data  Lc  xstoul.o [3]
dismantle_int_init      0x080084cd    0x76  Code  Gb  dismantle.o [1]
div                     0x08001955     0xe  Code  Gb  div.o [3]
eeprom_read_bytes       0x08007f89    0x22  Code  Gb  eeprom.o [1]
eeprom_write_bytes      0x08007fab    0x54  Code  Gb  eeprom.o [1]
exit                    0x08009267     0x4  Code  Gb  exit.o [3]
fgetc                   0x080067c9    0x18  Code  Gb  usart.o [1]
fputc                   0x08006755    0x22  Code  Gb  usart.o [1]
g_RxBuf1                0x20005380   0x400  Data  Lc  usart.o [1]
g_RxBuf2                0x20005b80   0x400  Data  Lc  usart.o [1]
g_RxBuf3                0x20006380   0x400  Data  Lc  usart.o [1]
g_TxBuf1                0x20004f80   0x400  Data  Lc  usart.o [1]
g_TxBuf2                0x20005780   0x400  Data  Lc  usart.o [1]
g_TxBuf3                0x20005f80   0x400  Data  Lc  usart.o [1]
g_tUart1                0x20006834    0x28  Data  Lc  usart.o [1]
g_tUart2                0x2000685c    0x28  Data  Lc  usart.o [1]
g_tUart3                0x20006884    0x28  Data  Lc  usart.o [1]
getAcceleration         0x08004e69    0xa4  Code  Gb  adxl345.o [1]
getTempRh               0x080077b1    0x42  Code  Gb  SHT20.o [1]
get_boot_index          0x08007129    0x3e  Code  Gb  platform.o [1]
get_device_id           0x08007059     0xc  Code  Gb  platform.o [1]
get_device_revision     0x08007065     0xa  Code  Gb  platform.o [1]
get_flash_size          0x0800706f    0x6e  Code  Gb  platform.o [1]
get_unique_id           0x080070dd    0x4c  Code  Gb  platform.o [1]
get_version             0x08007167     0x6  Code  Gb  platform.o [1]
getchar                 0x08009601     0x6  Code  Gb  getchar.o [3]
hal_acc_init            0x08005d71     0x8  Code  Gb  hal_acc_sensor.o [1]
hal_beep                0x08005c3d     0xe  Code  Gb  hal_beep.o [1]
hal_beep_init           0x08005c35     0x8  Code  Gb  hal_beep.o [1]
hal_dismantle_int_init  0x08006add     0x8  Code  Gb  hal_dismantle.o [1]
hal_eeprom_read_bytes   0x080061db    0x18  Code  Gb  hal_eeprom.o [1]
hal_eeprom_write_bytes  0x080061f3    0x1e  Code  Gb  hal_eeprom.o [1]
hal_getAcceleration     0x08005d59    0x18  Code  Gb  hal_acc_sensor.o [1]
hal_get_boot_index      0x08005c83     0xc  Code  Gb  hal_platform.o [1]
hal_get_device_id       0x08005c53     0xc  Code  Gb  hal_platform.o [1]
hal_get_device_revision
                        0x08005c5f     0xc  Code  Gb  hal_platform.o [1]
hal_get_flash_size      0x08005c6b     0xc  Code  Gb  hal_platform.o [1]
hal_get_power_voltage   0x08006169     0xc  Code  Gb  hal_energy.o [1]
hal_get_tempRH          0x08005d3f    0x1a  Code  Gb  hal_tempRh.o [1]
hal_get_unique_id       0x08005c77     0xc  Code  Gb  hal_platform.o [1]
hal_get_version         0x08005c8f     0xc  Code  Gb  hal_platform.o [1]
hal_nfc_get_id          0x08005e43    0x16  Code  Gb  hal_nfc.o [1]
hal_nfc_init            0x08005d79     0xc  Code  Gb  hal_nfc.o [1]
hal_nfc_power_off       0x08005d8d     0x8  Code  Gb  hal_nfc.o [1]
hal_nfc_power_on        0x08005d85     0x8  Code  Gb  hal_nfc.o [1]
hal_nfc_read_one_block  0x08005de1    0x62  Code  Gb  hal_nfc.o [1]
hal_nfc_write_one_block
                        0x08005d95    0x4c  Code  Gb  hal_nfc.o [1]
hal_opt3001_alarm_init  0x08005cb1    0x16  Code  Gb  hal_brightness.o [1]
hal_opt3001_get_lux     0x08005cc7    0x14  Code  Gb  hal_brightness.o [1]
hal_opt3001_int_get_lux
                        0x08005cdb    0x14  Code  Gb  hal_brightness.o [1]
hal_opt3001_int_init    0x08005ca9     0x8  Code  Gb  hal_brightness.o [1]
hal_opt3001_reg_init    0x08005c9b     0xe  Code  Gb  hal_brightness.o [1]
hal_set_led             0x08005e59    0x20  Code  Gb  hal_led.o [1]
hal_system_reset        0x08005c4b     0x8  Code  Gb  hal_platform.o [1]
i2c1_init               0x080032f5    0x94  Code  Gb  I2c.o [1]
i2c1_recover            0x08003389    0xbe  Code  Gb  I2c.o [1]
input_hex_to_int        0x080050a3    0xc6  Code  Gb  main.o [1]
int_alarm_handler       0x080055fd    0x50  Code  Lc  main.o [1]
int_alarm_queue         0x20006928     0x4  Data  Gb  bsp.o [1]
internal_Pow            0x08003a29   0x418  Code  Lc  pow.o [4]
isspace                 0x08008549    0x14  Code  Gb  isxxx.o [3]
lnbias                  0x08003e58   0x420  Data  Lc  pow.o [4]
localeconv              0x08001923    0x16  Code  Gb  localeconv.o [3]
low_level_setled        0x080068cf   0x1d4  Code  Gb  WS2812.o [1]
main                    0x08005069    0x14  Code  Gb  main.o [1]
memchr                  0x08000f79          Code  Gb  memchr.o [5]
ndigs                   0x08008754    0x28  Data  Lc  xstoul.o [3]
nfc_clear_info_flag     0x0800603d    0xaa  Code  Gb  nfc_module.o [1]
nfc_read_info           0x08005f09   0x134  Code  Gb  nfc_module.o [1]
nfc_read_info_flag      0x08005e79    0x90  Code  Gb  nfc_module.o [1]
nfc_read_status         0x0800612b    0x3e  Code  Gb  nfc_module.o [1]
nfc_write_status        0x080060e7    0x44  Code  Gb  nfc_module.o [1]
nt3h1101_get_id         0x08007c2d    0x5c  Code  Gb  nt3h1101.o [1]
nt3h1101_init           0x08007ea9     0xc  Code  Gb  nt3h1101.o [1]
nt3h1101_int_init       0x08007e05    0x72  Code  Gb  nt3h1101.o [1]
nt3h1101_power_ctl_init
                        0x080077f5    0x30  Code  Gb  nt3h1101.o [1]
nt3h1101_power_off      0x08007865     0xc  Code  Gb  nt3h1101.o [1]
nt3h1101_power_on       0x08007825    0x40  Code  Gb  nt3h1101.o [1]
nt3h1101_read_one_block
                        0x08007871   0x25e  Code  Gb  nt3h1101.o [1]
nt3h1101_timeout        0x20006940     0x4  Data  Lc  nt3h1101.o [1]
nt3h1101_write_one_block
                        0x08007acf   0x15e  Code  Gb  nt3h1101.o [1]
nt3h1101_write_reg      0x08007c89   0x17c  Code  Gb  nt3h1101.o [1]
obuf                    0x200067e4    0x50  Data  Lc  xfiles.o [3]
opt3001_alarm_init      0x08002f3b    0x34  Code  Gb  opt3001.o [1]
opt3001_data_convert    0x08002d23   0x218  Code  Lc  opt3001.o [1]
opt3001_get_lux         0x08002f6f    0x6e  Code  Gb  opt3001.o [1]
opt3001_int_get_lux     0x08002fdd    0x86  Code  Gb  opt3001.o [1]
opt3001_int_init        0x08002c45    0x6e  Code  Gb  opt3001.o [1]
opt3001_read_two_byte   0x080029b9   0x28c  Code  Lc  opt3001.o [1]
opt3001_reg_init        0x08002cb3    0x70  Code  Gb  opt3001.o [1]
opt3001_timeout         0x20006944     0x4  Data  Lc  opt3001.o [1]
opt3001_write_two_byte  0x08002825   0x194  Code  Lc  opt3001.o [1]
pcInterruptPriorityRegisters
                        0x08009678     0x4  Data  Lc  port.o [1]
pow                     0x08003e47     0xe  Code  Gb  pow.o [4]
power_adc_conversion    0x08007eb5    0xd4  Code  Gb  adc.o [1]
power_ctl_reg           0x2000691c     0x4  Data  Gb  adxl345.o [1]
printf                  0x08005bed    0x24  Code  Gb  printf.o [3]
prvAddCurrentTaskToDelayedList
                        0x080021dd    0x4a  Code  Lc  tasks.o [1]
prvAllocateTCBAndStack  0x08002227    0x3c  Code  Lc  tasks.o [1]
prvCheckTasksWaitingTermination
                        0x08002173    0x66  Code  Lc  tasks.o [1]
prvCopyDataFromQueue    0x08005b33    0x30  Code  Lc  queue.o [1]
prvCopyDataToQueue      0x08005aaf    0x84  Code  Lc  queue.o [1]
prvDeleteTCB            0x08002263    0x12  Code  Lc  tasks.o [1]
prvHeapInit             0x08002737    0x6e  Code  Lc  heap_4.o [1]
prvIdleTask             0x08002091    0x18  Code  Lc  tasks.o [1]
prvInitialiseTCBVariables
                        0x080020b5    0x66  Code  Lc  tasks.o [1]
prvInitialiseTaskLists  0x0800211b    0x58  Code  Lc  tasks.o [1]
prvInsertBlockIntoFreeList
                        0x080027a5    0x62  Code  Lc  heap_4.o [1]
prvIsQueueEmpty         0x08005bcd    0x20  Code  Lc  queue.o [1]
prvResetNextTaskUnblockTime
                        0x08002275    0x2a  Code  Lc  tasks.o [1]
prvTaskExitError        0x08002399    0x18  Code  Lc  port.o [1]
prvUnlockQueue          0x08005b63    0x6a  Code  Lc  queue.o [1]
putchar                 0x0800940d     0xc  Code  Gb  putchar.o [3]
pvPortMalloc            0x080025d9    0xfa  Code  Gb  heap_4.o [1]
pxCurrentTCB            0x20006950     0x4  Data  Gb  tasks.o [1]
pxDelayedTaskList       0x20006954     0x4  Data  Lc  tasks.o [1]
pxEnd                   0x2000692c     0x4  Data  Lc  heap_4.o [1]
pxOverflowDelayedTaskList
                        0x20006958     0x4  Data  Lc  tasks.o [1]
pxPortInitialiseStack   0x0800237d    0x1c  Code  Gb  port.o [1]
pxReadyTasksLists       0x20006780    0x64  Data  Lc  tasks.o [1]
scanf                   0x08005c11    0x24  Code  Gb  scanf.o [3]
set_led                 0x08006abd    0x20  Code  Gb  WS2812.o [1]
sht20_read_rh           0x080074bf   0x2be  Code  Lc  SHT20.o [1]
sht20_read_temp         0x08007189   0x336  Code  Lc  SHT20.o [1]
sht20_timeout           0x2000694c     0x4  Data  Lc  SHT20.o [1]
strchr                  0x08000f29          Code  Gb  strchr.o [5]
strlen                  0x08000f41          Code  Gb  strlen.o [5]
system_reset            0x0800704b     0xe  Code  Gb  platform.o [1]
tolower                 0x08008c01    0x14  Code  Gb  tolower.o [3]
ucHeap                  0x20000b80  0x4400  Data  Lc  heap_4.o [1]
ucMaxSysCallPriority    0x2000698a     0x1  Data  Lc  port.o [1]
ulMaxPRIGROUPValue      0x20006948     0x4  Data  Lc  port.o [1]
ulPortSetInterruptMask  0x08002327          Code  Gb  portasm.o [1]
ungetc                  0x08008f8f    0x52  Code  Gb  ungetc.o [3]
uxCriticalNesting       0x20000000     0x4  Data  Lc  port.o [1]
uxCurrentNumberOfTasks  0x20006960     0x4  Data  Lc  tasks.o [1]
uxListRemove            0x080025af    0x28  Code  Gb  list.o [1]
uxPendedTicks           0x20006970     0x4  Data  Lc  tasks.o [1]
uxSchedulerSuspended    0x20006984     0x4  Data  Lc  tasks.o [1]
uxTaskNumber            0x2000697c     0x4  Data  Lc  tasks.o [1]
uxTasksDeleted          0x2000695c     0x4  Data  Lc  tasks.o [1]
uxTopReadyPriority      0x20006968     0x4  Data  Lc  tasks.o [1]
vListInitialise         0x08002539    0x1e  Code  Gb  list.o [1]
vListInitialiseItem     0x08002557     0x6  Code  Gb  list.o [1]
vListInsert             0x08002575    0x3a  Code  Gb  list.o [1]
vListInsertEnd          0x0800255d    0x18  Code  Gb  list.o [1]
vPortClearInterruptMask
                        0x08002335          Code  Gb  portasm.o [1]
vPortEnterCritical      0x0800244b    0x30  Code  Gb  port.o [1]
vPortExitCritical       0x0800247b    0x2a  Code  Gb  port.o [1]
vPortFree               0x080026d3    0x64  Code  Gb  heap_4.o [1]
vPortSetupTimerInterrupt
                        0x080024c3    0x10  Code  Wk  port.o [1]
vPortStartFirstTask     0x0800235b          Code  Gb  portasm.o [1]
vPortValidateInterruptPriority
                        0x080024d5    0x3c  Code  Gb  port.o [1]
vPortYield              0x08002439    0x12  Code  Gb  port.o [1]
vTaskDelay              0x08001ba3    0x6c  Code  Gb  tasks.o [1]
vTaskMissedYield        0x0800207d     0xa  Code  Gb  tasks.o [1]
vTaskPlaceOnEventList   0x08001efd    0x6c  Code  Gb  tasks.o [1]
vTaskSetTimeOutState    0x08001fe5    0x20  Code  Gb  tasks.o [1]
vTaskStart              0x0800516d   0x482  Code  Lc  main.o [1]
vTaskStartScheduler     0x08001c0f    0x58  Code  Gb  tasks.o [1]
vTaskSuspendAll         0x08001c67    0x10  Code  Gb  tasks.o [1]
vTaskSwitchContext      0x08001e93    0x6a  Code  Gb  tasks.o [1]
xBlockAllocatedBit      0x20006938     0x4  Data  Lc  heap_4.o [1]
xDelayedTaskList1       0x200068ac    0x14  Data  Lc  tasks.o [1]
xDelayedTaskList2       0x200068c0    0x14  Data  Lc  tasks.o [1]
xFreeBytesRemaining     0x20006930     0x4  Data  Lc  heap_4.o [1]
xHandleTaskStart        0x2000693c     0x4  Data  Lc  main.o [1]
xHeapStructSize         0x08009674     0x4  Data  Lc  heap_4.o [1]
xMinimumEverFreeBytesRemaining
                        0x20006934     0x4  Data  Lc  heap_4.o [1]
xNextTaskUnblockTime    0x20006980     0x4  Data  Lc  tasks.o [1]
xNumOfOverflows         0x20006978     0x4  Data  Lc  tasks.o [1]
xPendingReadyList       0x200068d4    0x14  Data  Lc  tasks.o [1]
xPortStartScheduler     0x080023b1    0x88  Code  Gb  port.o [1]
xQueueGenericCreate     0x0800584d    0x66  Code  Gb  queue.o [1]
xQueueGenericReceive    0x08005975   0x13a  Code  Gb  queue.o [1]
xQueueGenericReset      0x080057d5    0x78  Code  Gb  queue.o [1]
xQueueGenericSendFromISR
                        0x080058b3    0xc2  Code  Gb  queue.o [1]
xSchedulerRunning       0x2000696c     0x4  Data  Lc  tasks.o [1]
xStart                  0x20006910     0x8  Data  Lc  heap_4.o [1]
xSuspendedTaskList      0x200068fc    0x14  Data  Lc  tasks.o [1]
xTaskCheckForTimeOut    0x08002009    0x74  Code  Gb  tasks.o [1]
xTaskGenericCreate      0x08001a55   0x14e  Code  Gb  tasks.o [1]
xTaskIncrementTick      0x08001d5f   0x134  Code  Gb  tasks.o [1]
xTaskRemoveFromEventList
                        0x08001f69    0x7c  Code  Gb  tasks.o [1]
xTaskResumeAll          0x08001c77    0xe8  Code  Gb  tasks.o [1]
xTasksWaitingTermination
                        0x200068e8    0x14  Data  Lc  tasks.o [1]
xTickCount              0x20006964     0x4  Data  Lc  tasks.o [1]
xYieldPending           0x20006974     0x4  Data  Lc  tasks.o [1]


[1] = F:\phoenix\PRO\IAR+FreeRTOS+STM32L1xx\Project\EWARMv6\Debug\Obj
[2] = command line
[3] = dl7M_tlf.a
[4] = m7M_tl.a
[5] = rt7M_tl.a
[6] = shb_l.a

  37 134 bytes of readonly  code memory
   1 740 bytes of readonly  data memory
  27 020 bytes of readwrite data memory

Errors: none
Warnings: none
